; Function Attrs: mustprogress nofree norecurse nosync nounwind willreturn memory(read, inaccessiblemem: none) uwtable
define hidden noundef zeroext i1 @_ZN14PhaseIdealLoop14has_use_in_setEP4NodeR9VectorSet(ptr nocapture noundef nonnull readnone align 8 dereferenceable(237) %0, ptr nocapture noundef readonly %1, ptr nocapture noundef nonnull readonly align 8 dereferenceable(32) %2) local_unnamed_addr #2 align 2 {
  %4 = getelementptr inbounds i8, ptr %1, i64 16
  %5 = load ptr, ptr %4, align 8
  %6 = getelementptr inbounds i8, ptr %1, i64 32
  %7 = load i32, ptr %6, align 8
  %8 = zext i32 %7 to i64
  %9 = getelementptr inbounds ptr, ptr %5, i64 %8
  %.not12 = icmp eq i32 %7, 0
  br i1 %.not12, label %._crit_edge, label %.lr.ph

.lr.ph:                                           ; preds = %3
  %10 = load i32, ptr %2, align 8
  %11 = getelementptr inbounds i8, ptr %2, i64 8
  %12 = load ptr, ptr %11, align 8
  br label %13

13:                                               ; preds = %.lr.ph, %_ZNK9VectorSet4testEj.exit.thread
  %.0810 = phi ptr [ %5, %.lr.ph ], [ %24, %_ZNK9VectorSet4testEj.exit.thread ]
  %14 = load ptr, ptr %.0810, align 8
  %15 = getelementptr inbounds i8, ptr %14, i64 40
  %16 = load i32, ptr %15, align 8
  %17 = lshr i32 %16, 5
  %.not.i = icmp ult i32 %17, %10
  br i1 %.not.i, label %_ZNK9VectorSet4testEj.exit, label %_ZNK9VectorSet4testEj.exit.thread

_ZNK9VectorSet4testEj.exit:                       ; preds = %13
  %18 = and i32 %16, 31
  %19 = shl nuw i32 1, %18
  %20 = zext nneg i32 %17 to i64
  %21 = getelementptr inbounds i32, ptr %12, i64 %20
  %22 = load i32, ptr %21, align 4
  %23 = and i32 %22, %19
  %.not = icmp eq i32 %23, 0
  br i1 %.not, label %_ZNK9VectorSet4testEj.exit.thread, label %._crit_edge

_ZNK9VectorSet4testEj.exit.thread:                ; preds = %13, %_ZNK9VectorSet4testEj.exit
  %24 = getelementptr inbounds i8, ptr %.0810, i64 8
  %25 = icmp ult ptr %24, %9
  br i1 %25, label %13, label %._crit_edge, !llvm.loop !90

._crit_edge:                                      ; preds = %_ZNK9VectorSet4testEj.exit, %_ZNK9VectorSet4testEj.exit.thread, %3
  %.lcssa = phi i1 [ false, %3 ], [ false, %_ZNK9VectorSet4testEj.exit.thread ], [ true, %_ZNK9VectorSet4testEj.exit ]
  ret i1 %.lcssa
}